
image:     file format elf32-lm32

Sections:
Idx Name          Size      VMA       LMA       File off  Algn
  0 .text         00000260  00860000  00860000  00000054  2**2
                  CONTENTS, ALLOC, LOAD, CODE
  1 .rodata       0000001c  00860260  00860260  000002b4  2**2
                  CONTENTS, ALLOC, LOAD, READONLY, DATA
  2 .data         0000000c  0086027c  0086027c  000002d0  2**2
                  CONTENTS, ALLOC, LOAD, DATA
  3 .bss          00000004  00860288  00860288  000002dc  2**2
                  ALLOC
  4 .debug_abbrev 000001f4  00000000  00000000  000002dc  2**0
                  CONTENTS, READONLY, DEBUGGING
  5 .debug_info   00000402  00000000  00000000  000004d0  2**0
                  CONTENTS, READONLY, DEBUGGING
  6 .debug_line   0000026c  00000000  00000000  000008d2  2**0
                  CONTENTS, READONLY, DEBUGGING
  7 .debug_frame  000000a0  00000000  00000000  00000b40  2**2
                  CONTENTS, READONLY, DEBUGGING
  8 .debug_loc    0000019a  00000000  00000000  00000be0  2**0
                  CONTENTS, READONLY, DEBUGGING
  9 .debug_pubnames 000000bc  00000000  00000000  00000d7a  2**0
                  CONTENTS, READONLY, DEBUGGING
 10 .debug_pubtypes 00000077  00000000  00000000  00000e36  2**0
                  CONTENTS, READONLY, DEBUGGING
 11 .debug_aranges 00000040  00000000  00000000  00000ead  2**0
                  CONTENTS, READONLY, DEBUGGING
 12 .debug_str    00000164  00000000  00000000  00000eed  2**0
                  CONTENTS, READONLY, DEBUGGING
 13 .comment      00000011  00000000  00000000  00001051  2**0
                  CONTENTS, READONLY

Disassembly of section .text:

00860000 <_ftext>:
  860000:	98 00 00 00 	xor r0,r0,r0
  860004:	d0 00 00 00 	wcsr IE,r0
  860008:	78 01 00 86 	mvhi r1,0x86
  86000c:	38 21 00 00 	ori r1,r1,0x0
  860010:	d0 e1 00 00 	wcsr EBA,r1
  860014:	f8 00 00 03 	calli 860020 <_crt0>
  860018:	34 00 00 00 	nop
  86001c:	34 00 00 00 	nop

00860020 <_crt0>:
  860020:	78 1c 00 86 	mvhi sp,0x86
  860024:	3b 9c 0f fc 	ori sp,sp,0xffc
  860028:	78 1a 00 86 	mvhi gp,0x86
  86002c:	3b 5a 02 90 	ori gp,gp,0x290
  860030:	78 01 00 86 	mvhi r1,0x86
  860034:	38 21 02 88 	ori r1,r1,0x288
  860038:	78 03 00 86 	mvhi r3,0x86
  86003c:	38 63 02 8c 	ori r3,r3,0x28c

00860040 <.clearBSS>:
  860040:	44 23 00 04 	be r1,r3,860050 <.callMain>
  860044:	58 20 00 00 	sw (r1+0),r0
  860048:	34 21 00 04 	addi r1,r1,4
  86004c:	e3 ff ff fd 	bi 860040 <.clearBSS>

00860050 <.callMain>:
  860050:	34 01 00 00 	mvi r1,0
  860054:	34 02 00 00 	mvi r2,0
  860058:	34 03 00 00 	mvi r3,0
  86005c:	f8 00 00 1c 	calli 8600cc <main>

00860060 <irq_enable>:
  860060:	34 01 00 01 	mvi r1,1
  860064:	d0 01 00 00 	wcsr IE,r1
  860068:	c3 a0 00 00 	ret

0086006c <irq_mask>:
  86006c:	34 01 00 0f 	mvi r1,15
  860070:	d0 21 00 00 	wcsr IM,r1
  860074:	c3 a0 00 00 	ret

00860078 <irq_disable>:
  860078:	34 01 00 00 	mvi r1,0
  86007c:	d0 01 00 00 	wcsr IE,r1
  860080:	c3 a0 00 00 	ret

00860084 <jump>:
  860084:	c0 20 00 00 	b r1

00860088 <halt>:
  860088:	e0 00 00 00 	bi 860088 <halt>

0086008c <read_uint32>:
 */
#include "soc-hw.h"

/* prototypes */
uint32_t read_uint32()
{
  86008c:	37 9c ff f4 	addi sp,sp,-12
  860090:	5b 8b 00 0c 	sw (sp+12),r11
  860094:	5b 8c 00 08 	sw (sp+8),r12
  860098:	5b 9d 00 04 	sw (sp+4),ra
  86009c:	34 0b 00 04 	mvi r11,4
	uint32_t val = 0, i;
  8600a0:	34 01 00 00 	mvi r1,0

    for (i = 0; i < 4; i++) {
        val <<= 8;
  8600a4:	3c 2c 00 08 	sli r12,r1,8
        val += (uint8_t)uart_getchar();
  8600a8:	35 6b ff ff 	addi r11,r11,-1
  8600ac:	f8 00 00 4e 	calli 8601e4 <uart_getchar>
  8600b0:	b4 2c 08 00 	add r1,r1,r12
/* prototypes */
uint32_t read_uint32()
{
	uint32_t val = 0, i;

    for (i = 0; i < 4; i++) {
  8600b4:	5d 60 ff fc 	bne r11,r0,8600a4 <read_uint32+0x18>
        val <<= 8;
        val += (uint8_t)uart_getchar();
    }

    return val;
}
  8600b8:	2b 9d 00 04 	lw ra,(sp+4)
  8600bc:	2b 8b 00 0c 	lw r11,(sp+12)
  8600c0:	2b 8c 00 08 	lw r12,(sp+8)
  8600c4:	37 9c 00 0c 	addi sp,sp,12
  8600c8:	c3 a0 00 00 	ret

008600cc <main>:

int main(int argc, char **argv)
{
  8600cc:	37 9c ff e4 	addi sp,sp,-28
  8600d0:	5b 8b 00 1c 	sw (sp+28),r11
  8600d4:	5b 8c 00 18 	sw (sp+24),r12
  8600d8:	5b 8d 00 14 	sw (sp+20),r13
  8600dc:	5b 8e 00 10 	sw (sp+16),r14
  8600e0:	5b 8f 00 0c 	sw (sp+12),r15
  8600e4:	5b 90 00 08 	sw (sp+8),r16
  8600e8:	5b 9d 00 04 	sw (sp+4),ra
  8600ec:	78 10 00 86 	mvhi r16,0x86
	int8_t  *p;
	uint8_t  c;

	// Initialize UART

	c = '*'; // print msg on first iteration
  8600f0:	34 01 00 2a 	mvi r1,42
	for(;;) {
		uint32_t start, size; 

		switch (c) {
  8600f4:	34 0d 00 67 	mvi r13,103
  8600f8:	3a 10 02 60 	ori r16,r16,0x260
  8600fc:	34 0e 00 75 	mvi r14,117
  860100:	34 0f 00 64 	mvi r15,100
  860104:	44 2d 00 07 	be r1,r13,860120 <main+0x54>
  860108:	44 2e 00 15 	be r1,r14,86015c <main+0x90>
  86010c:	44 2f 00 09 	be r1,r15,860130 <main+0x64>
    		case 'g': // goto
    			start = read_uint32();
    			jump(start);
    			break;   
		default:
			uart_putstr("**SAKC/bootloader** > \r\n");
  860110:	ba 00 08 00 	mv r1,r16
  860114:	f8 00 00 46 	calli 86022c <uart_putstr>
			break;
		};
		c = uart_getchar();
  860118:	f8 00 00 33 	calli 8601e4 <uart_getchar>

	c = '*'; // print msg on first iteration
	for(;;) {
		uint32_t start, size; 

		switch (c) {
  86011c:	5c 2d ff fb 	bne r1,r13,860108 <main+0x3c>
    			size  = read_uint32();
    			for (p = (int8_t *) start; p < (int8_t *) (start+size); p++)
				uart_putchar( *p );
    			break;
    		case 'g': // goto
    			start = read_uint32();
  860120:	fb ff ff db 	calli 86008c <read_uint32>
    			jump(start);
  860124:	fb ff ff d8 	calli 860084 <jump>
    			break;   
		default:
			uart_putstr("**SAKC/bootloader** > \r\n");
			break;
		};
		c = uart_getchar();
  860128:	f8 00 00 2f 	calli 8601e4 <uart_getchar>
  86012c:	e3 ff ff fc 	bi 86011c <main+0x50>
    			size  = read_uint32();
    			for (p = (int8_t *) start; p < (int8_t *) (start+size); p++)
    				*p = uart_getchar();
    			break;
		case 'd': // download
    			start = read_uint32();
  860130:	fb ff ff d7 	calli 86008c <read_uint32>
    			size  = read_uint32();
    			for (p = (int8_t *) start; p < (int8_t *) (start+size); p++)
  860134:	b8 20 58 00 	mv r11,r1
    			for (p = (int8_t *) start; p < (int8_t *) (start+size); p++)
    				*p = uart_getchar();
    			break;
		case 'd': // download
    			start = read_uint32();
    			size  = read_uint32();
  860138:	fb ff ff d5 	calli 86008c <read_uint32>
    			for (p = (int8_t *) start; p < (int8_t *) (start+size); p++)
  86013c:	b5 61 60 00 	add r12,r11,r1
  860140:	51 6c ff f6 	bgeu r11,r12,860118 <main+0x4c>
				uart_putchar( *p );
  860144:	41 61 00 00 	lbu r1,(r11+0)
    				*p = uart_getchar();
    			break;
		case 'd': // download
    			start = read_uint32();
    			size  = read_uint32();
    			for (p = (int8_t *) start; p < (int8_t *) (start+size); p++)
  860148:	35 6b 00 01 	addi r11,r11,1
				uart_putchar( *p );
  86014c:	f8 00 00 2f 	calli 860208 <uart_putchar>
    				*p = uart_getchar();
    			break;
		case 'd': // download
    			start = read_uint32();
    			size  = read_uint32();
    			for (p = (int8_t *) start; p < (int8_t *) (start+size); p++)
  860150:	55 8b ff fd 	bgu r12,r11,860144 <main+0x78>
    			break;   
		default:
			uart_putstr("**SAKC/bootloader** > \r\n");
			break;
		};
		c = uart_getchar();
  860154:	f8 00 00 24 	calli 8601e4 <uart_getchar>
  860158:	e3 ff ff f1 	bi 86011c <main+0x50>
	for(;;) {
		uint32_t start, size; 

		switch (c) {
    		case 'u': // upload 
    			start = read_uint32();
  86015c:	fb ff ff cc 	calli 86008c <read_uint32>
    			size  = read_uint32();
    			for (p = (int8_t *) start; p < (int8_t *) (start+size); p++)
  860160:	b8 20 58 00 	mv r11,r1
		uint32_t start, size; 

		switch (c) {
    		case 'u': // upload 
    			start = read_uint32();
    			size  = read_uint32();
  860164:	fb ff ff ca 	calli 86008c <read_uint32>
    			for (p = (int8_t *) start; p < (int8_t *) (start+size); p++)
  860168:	b5 61 60 00 	add r12,r11,r1
  86016c:	51 6c ff eb 	bgeu r11,r12,860118 <main+0x4c>
    				*p = uart_getchar();
  860170:	f8 00 00 1d 	calli 8601e4 <uart_getchar>
  860174:	31 61 00 00 	sb (r11+0),r1

		switch (c) {
    		case 'u': // upload 
    			start = read_uint32();
    			size  = read_uint32();
    			for (p = (int8_t *) start; p < (int8_t *) (start+size); p++)
  860178:	35 6b 00 01 	addi r11,r11,1
  86017c:	55 8b ff fd 	bgu r12,r11,860170 <main+0xa4>
    			break;   
		default:
			uart_putstr("**SAKC/bootloader** > \r\n");
			break;
		};
		c = uart_getchar();
  860180:	f8 00 00 19 	calli 8601e4 <uart_getchar>
  860184:	e3 ff ff e6 	bi 86011c <main+0x50>

00860188 <sleep>:
void sleep(int msec)
{
	uint32_t tcr;

	// Use timer0.1
	timer0->compare1 = (FCPU/1000)*msec;
  860188:	78 02 00 86 	mvhi r2,0x86
  86018c:	38 42 02 80 	ori r2,r2,0x280
  860190:	38 03 c3 50 	mvu r3,0xc350
  860194:	28 42 00 00 	lw r2,(r2+0)
  860198:	88 23 08 00 	mul r1,r1,r3
  86019c:	58 41 00 10 	sw (r2+16),r1
	timer0->counter1 = 0;
  8601a0:	58 40 00 14 	sw (r2+20),r0
	timer0->tcr1 = TIMER_EN | TIMER_IRQEN;
  8601a4:	34 01 00 0a 	mvi r1,10
  8601a8:	58 41 00 0c 	sw (r2+12),r1

	do {
		//halt();
 		tcr = timer0->tcr1;
  8601ac:	28 41 00 0c 	lw r1,(r2+12)
 	} while ( ! (tcr & TIMER_TRIG) );
  8601b0:	20 21 00 01 	andi r1,r1,0x1
  8601b4:	44 20 ff fe 	be r1,r0,8601ac <sleep+0x24>
}
  8601b8:	c3 a0 00 00 	ret

008601bc <tic_init>:

void tic_init()
{
	// Setup timer0.0
	timer0->compare0 = (FCPU/1000);
  8601bc:	78 01 00 86 	mvhi r1,0x86
  8601c0:	38 21 02 80 	ori r1,r1,0x280
  8601c4:	28 21 00 00 	lw r1,(r1+0)
  8601c8:	38 02 c3 50 	mvu r2,0xc350
  8601cc:	58 22 00 04 	sw (r1+4),r2
	timer0->counter0 = 0;
  8601d0:	58 20 00 08 	sw (r1+8),r0
	timer0->tcr0     = TIMER_EN | TIMER_AR | TIMER_IRQEN;
  8601d4:	34 02 00 0e 	mvi r2,14
  8601d8:	58 22 00 00 	sw (r1+0),r2
}
  8601dc:	c3 a0 00 00 	ret

008601e0 <uart_init>:
	//uart0->lcr = 0x03;  // Line Control Register:    8N1
	//uart0->mcr = 0x00;  // Modem Control Register

	// Setup Divisor register (Fclk / Baud)
	//uart0->div = (FCPU/(57600*16));
}
  8601e0:	c3 a0 00 00 	ret

008601e4 <uart_getchar>:

char uart_getchar()
{   
  8601e4:	78 01 00 86 	mvhi r1,0x86
  8601e8:	38 21 02 7c 	ori r1,r1,0x27c
  8601ec:	28 22 00 00 	lw r2,(r1+0)
	while (! (uart0->ucr & UART_DR)) ;
  8601f0:	28 41 00 00 	lw r1,(r2+0)
  8601f4:	20 21 00 01 	andi r1,r1,0x1
  8601f8:	44 20 ff fe 	be r1,r0,8601f0 <uart_getchar+0xc>
	return uart0->rxtx;
  8601fc:	28 41 00 04 	lw r1,(r2+4)
}
  860200:	20 21 00 ff 	andi r1,r1,0xff
  860204:	c3 a0 00 00 	ret

00860208 <uart_putchar>:

void uart_putchar(char c)
{
  860208:	78 02 00 86 	mvhi r2,0x86
  86020c:	38 42 02 7c 	ori r2,r2,0x27c
  860210:	28 43 00 00 	lw r3,(r2+0)
  860214:	20 21 00 ff 	andi r1,r1,0xff
	while (uart0->ucr & UART_BUSY) ;
  860218:	28 62 00 00 	lw r2,(r3+0)
  86021c:	20 42 00 10 	andi r2,r2,0x10
  860220:	5c 40 ff fe 	bne r2,r0,860218 <uart_putchar+0x10>
	uart0->rxtx = c;
  860224:	58 61 00 04 	sw (r3+4),r1
}
  860228:	c3 a0 00 00 	ret

0086022c <uart_putstr>:

void uart_putstr(char *str)
{
	char *c = str;
	while(*c) {
  86022c:	40 24 00 00 	lbu r4,(r1+0)
  860230:	44 80 00 0b 	be r4,r0,86025c <uart_putstr+0x30>
  860234:	78 02 00 86 	mvhi r2,0x86
  860238:	38 42 02 7c 	ori r2,r2,0x27c
  86023c:	28 43 00 00 	lw r3,(r2+0)
	return uart0->rxtx;
}

void uart_putchar(char c)
{
	while (uart0->ucr & UART_BUSY) ;
  860240:	28 62 00 00 	lw r2,(r3+0)
  860244:	20 42 00 10 	andi r2,r2,0x10
  860248:	5c 40 ff fe 	bne r2,r0,860240 <uart_putstr+0x14>
	uart0->rxtx = c;
  86024c:	58 64 00 04 	sw (r3+4),r4
void uart_putstr(char *str)
{
	char *c = str;
	while(*c) {
		uart_putchar(*c);
		c++;
  860250:	34 21 00 01 	addi r1,r1,1
}

void uart_putstr(char *str)
{
	char *c = str;
	while(*c) {
  860254:	40 24 00 00 	lbu r4,(r1+0)
  860258:	5c 82 ff fa 	bne r4,r2,860240 <uart_putstr+0x14>
  86025c:	c3 a0 00 00 	ret
